; Function Attrs: mustprogress uwtable
define void @_ZN8QuantLib19ExchangeRateManagerC2Ev(ptr noundef nonnull align 8 dereferenceable(48) %this) unnamed_addr #3 align 2 personality ptr @__gxx_personality_v0 {
entry:
  %0 = getelementptr inbounds i8, ptr %this, i64 8
  store i32 0, ptr %0, align 8, !tbaa !3
  %_M_parent.i.i.i.i.i = getelementptr inbounds i8, ptr %this, i64 16
  store ptr null, ptr %_M_parent.i.i.i.i.i, align 8, !tbaa !11
  %_M_left.i.i.i.i.i = getelementptr inbounds i8, ptr %this, i64 24
  store ptr %0, ptr %_M_left.i.i.i.i.i, align 8, !tbaa !12
  %_M_right.i.i.i.i.i = getelementptr inbounds i8, ptr %this, i64 32
  store ptr %0, ptr %_M_right.i.i.i.i.i, align 8, !tbaa !13
  %_M_node_count.i.i.i.i.i = getelementptr inbounds i8, ptr %this, i64 40
  store i64 0, ptr %_M_node_count.i.i.i.i.i, align 8, !tbaa !14
  invoke void @_ZN8QuantLib19ExchangeRateManager13addKnownRatesEv(ptr noundef nonnull align 8 dereferenceable(48) %this)
          to label %invoke.cont unwind label %lpad

invoke.cont:                                      ; preds = %entry
  ret void

lpad:                                             ; preds = %entry
  %1 = landingpad { ptr, i32 }
          cleanup
  tail call void @_ZNSt3mapIlNSt7__cxx114listIN8QuantLib19ExchangeRateManager5EntryESaIS4_EEESt4lessIlESaISt4pairIKlS6_EEED2Ev(ptr noundef nonnull align 8 dereferenceable(48) %this) #22
  resume { ptr, i32 } %1
}